; Function Attrs: mustprogress nofree norecurse nosync nounwind memory(readwrite, inaccessiblemem: none) uwtable
define void @_ZN5arrow8internal12DowncastIntsEPKlPal(ptr nocapture noundef readonly %source, ptr nocapture noundef writeonly %dest, i64 noundef %length) local_unnamed_addr #2 {
entry:
  %cmp14.i = icmp sgt i64 %length, 3
  br i1 %cmp14.i, label %while.body.i, label %while.cond12.preheader.i

while.cond12.preheader.i:                         ; preds = %while.body.i, %entry
  %src.addr.0.lcssa.i = phi ptr [ %source, %entry ], [ %add.ptr.i, %while.body.i ]
  %dest.addr.0.lcssa.i = phi ptr [ %dest, %entry ], [ %add.ptr11.i, %while.body.i ]
  %length.addr.0.lcssa.i = phi i64 [ %length, %entry ], [ %sub.i, %while.body.i ]
  %cmp1320.i = icmp sgt i64 %length.addr.0.lcssa.i, 0
  br i1 %cmp1320.i, label %while.body14.i, label %_ZN5arrow8internalL16CastIntsInternalIlaEEvPKT_PT0_l.exit

while.body.i:                                     ; preds = %entry, %while.body.i
  %length.addr.017.i = phi i64 [ %sub.i, %while.body.i ], [ %length, %entry ]
  %dest.addr.016.i = phi ptr [ %add.ptr11.i, %while.body.i ], [ %dest, %entry ]
  %src.addr.015.i = phi ptr [ %add.ptr.i, %while.body.i ], [ %source, %entry ]
  %0 = load i64, ptr %src.addr.015.i, align 8
  %conv.i = trunc i64 %0 to i8
  store i8 %conv.i, ptr %dest.addr.016.i, align 1
  %arrayidx2.i = getelementptr inbounds i8, ptr %src.addr.015.i, i64 8
  %1 = load i64, ptr %arrayidx2.i, align 8
  %conv3.i = trunc i64 %1 to i8
  %arrayidx4.i = getelementptr inbounds i8, ptr %dest.addr.016.i, i64 1
  store i8 %conv3.i, ptr %arrayidx4.i, align 1
  %arrayidx5.i = getelementptr inbounds i8, ptr %src.addr.015.i, i64 16
  %2 = load i64, ptr %arrayidx5.i, align 8
  %conv6.i = trunc i64 %2 to i8
  %arrayidx7.i = getelementptr inbounds i8, ptr %dest.addr.016.i, i64 2
  store i8 %conv6.i, ptr %arrayidx7.i, align 1
  %arrayidx8.i = getelementptr inbounds i8, ptr %src.addr.015.i, i64 24
  %3 = load i64, ptr %arrayidx8.i, align 8
  %conv9.i = trunc i64 %3 to i8
  %arrayidx10.i = getelementptr inbounds i8, ptr %dest.addr.016.i, i64 3
  store i8 %conv9.i, ptr %arrayidx10.i, align 1
  %sub.i = add nsw i64 %length.addr.017.i, -4
  %add.ptr.i = getelementptr inbounds i8, ptr %src.addr.015.i, i64 32
  %add.ptr11.i = getelementptr inbounds i8, ptr %dest.addr.016.i, i64 4
  %cmp.i = icmp ugt i64 %length.addr.017.i, 7
  br i1 %cmp.i, label %while.body.i, label %while.cond12.preheader.i, !llvm.loop !149

while.body14.i:                                   ; preds = %while.cond12.preheader.i, %while.body14.i
  %length.addr.123.i = phi i64 [ %dec.i, %while.body14.i ], [ %length.addr.0.lcssa.i, %while.cond12.preheader.i ]
  %dest.addr.122.i = phi ptr [ %incdec.ptr16.i, %while.body14.i ], [ %dest.addr.0.lcssa.i, %while.cond12.preheader.i ]
  %src.addr.121.i = phi ptr [ %incdec.ptr.i, %while.body14.i ], [ %src.addr.0.lcssa.i, %while.cond12.preheader.i ]
  %incdec.ptr.i = getelementptr inbounds i8, ptr %src.addr.121.i, i64 8
  %4 = load i64, ptr %src.addr.121.i, align 8
  %conv15.i = trunc i64 %4 to i8
  %incdec.ptr16.i = getelementptr inbounds i8, ptr %dest.addr.122.i, i64 1
  store i8 %conv15.i, ptr %dest.addr.122.i, align 1
  %dec.i = add nsw i64 %length.addr.123.i, -1
  %cmp13.i = icmp ugt i64 %length.addr.123.i, 1
  br i1 %cmp13.i, label %while.body14.i, label %_ZN5arrow8internalL16CastIntsInternalIlaEEvPKT_PT0_l.exit, !llvm.loop !150

_ZN5arrow8internalL16CastIntsInternalIlaEEvPKT_PT0_l.exit: ; preds = %while.body14.i, %while.cond12.preheader.i
  ret void
}